target datalayout = "e-m:e-p270:32:32-p271:32:32-p272:64:64-i64:64-i128:128-f80:128-n8:16:32:64-S128"
target triple = "x86_64-pc-linux-gnu"

%struct.stat = type { i64, i64, i64, i32, i32, i32, i32, i64, i64, i64, i64, %struct.timespec, %struct.timespec, %struct.timespec, [3 x i64] }
%struct.timespec = type { i64, i64 }

@.str.38 = private unnamed_addr constant [3 x i8] c"/.\00", align 1

; Function Attrs: nounwind uwtable
define internal ptr @memcheck(ptr noundef %0) #0 {
  %2 = alloca ptr, align 8
  store ptr %0, ptr %2, align 8
  %3 = load ptr, ptr %2, align 8
  %4 = icmp eq ptr %3, null
  br i1 %4, label %5, label %9

5:                                                ; preds = %1
  %6 = call ptr @__errno_location() #16
  %7 = load i32, ptr %6, align 4
  %8 = call ptr @pg_strerror(i32 noundef %7)
  call void @memory_exhausted(ptr noundef %8) #15
  unreachable

9:                                                ; preds = %1
  %10 = load ptr, ptr %2, align 8
  ret ptr %10
}

; Function Attrs: nounwind uwtable
define internal ptr @emalloc(i64 noundef %0) #0 {
  %2 = alloca i64, align 8
  store i64 %0, ptr %2, align 8
  %3 = load i64, ptr %2, align 8
  %4 = call noalias ptr @malloc(i64 noundef %3) #18
  %5 = call ptr @memcheck(ptr noundef %4)
  ret ptr %5
}

; Function Attrs: nounwind uwtable
define internal zeroext i1 @itsdir(ptr noundef %0) #0 {
  %2 = alloca i1, align 1
  %3 = alloca ptr, align 8
  %4 = alloca %struct.stat, align 8
  %5 = alloca i32, align 4
  %6 = alloca i32, align 4
  %7 = alloca i64, align 8
  %8 = alloca ptr, align 8
  %9 = alloca i8, align 1
  store ptr %0, ptr %3, align 8
  call void @llvm.lifetime.start.p0(i64 144, ptr %4) #13
  call void @llvm.lifetime.start.p0(i64 4, ptr %5) #13
  %10 = load ptr, ptr %3, align 8
  %11 = call i32 @stat(ptr noundef %10, ptr noundef %4) #13
  store i32 %11, ptr %5, align 4
  %12 = load i32, ptr %5, align 4
  %13 = icmp eq i32 %12, 0
  br i1 %13, label %14, label %21

14:                                               ; preds = %1
  %15 = getelementptr inbounds nuw %struct.stat, ptr %4, i32 0, i32 3
  %16 = load i32, ptr %15, align 8
  %17 = and i32 %16, 61440
  %18 = icmp eq i32 %17, 16384
  %19 = zext i1 %18 to i32
  %20 = icmp ne i32 %19, 0
  store i1 %20, ptr %2, align 1
  store i32 1, ptr %6, align 4
  br label %71

21:                                               ; preds = %1
  %22 = load i32, ptr %5, align 4
  %23 = icmp eq i32 %22, 0
  br i1 %23, label %28, label %24

24:                                               ; preds = %21
  %25 = call ptr @__errno_location() #16
  %26 = load i32, ptr %25, align 4
  %27 = icmp eq i32 %26, 75
  br i1 %27, label %28, label %70

28:                                               ; preds = %24, %21
  call void @llvm.lifetime.start.p0(i64 8, ptr %7) #13
  %29 = load ptr, ptr %3, align 8
  %30 = call i64 @strlen(ptr noundef %29) #14
  store i64 %30, ptr %7, align 8
  call void @llvm.lifetime.start.p0(i64 8, ptr %8) #13
  %31 = load i64, ptr %7, align 8
  %32 = add i64 %31, 3
  %33 = call ptr @emalloc(i64 noundef %32)
  store ptr %33, ptr %8, align 8
  call void @llvm.lifetime.start.p0(i64 1, ptr %9) #13
  %34 = load ptr, ptr %8, align 8
  %35 = load ptr, ptr %3, align 8
  %36 = load i64, ptr %7, align 8
  call void @llvm.memcpy.p0.p0.i64(ptr align 1 %34, ptr align 1 %35, i64 %36, i1 false)
  %37 = load ptr, ptr %8, align 8
  %38 = load i64, ptr %7, align 8
  %39 = getelementptr inbounds nuw i8, ptr %37, i64 %38
  %40 = load i64, ptr %7, align 8
  %41 = icmp ne i64 %40, 0
  br i1 %41, label %42, label %50

42:                                               ; preds = %28
  %43 = load ptr, ptr %3, align 8
  %44 = load i64, ptr %7, align 8
  %45 = sub i64 %44, 1
  %46 = getelementptr inbounds nuw i8, ptr %43, i64 %45
  %47 = load i8, ptr %46, align 1
  %48 = sext i8 %47 to i32
  %49 = icmp ne i32 %48, 47
  br label %50

50:                                               ; preds = %42, %28
  %51 = phi i1 [ false, %28 ], [ %49, %42 ]
  %52 = xor i1 %51, true
  %53 = zext i1 %52 to i32
  %54 = sext i32 %53 to i64
  %55 = getelementptr inbounds [3 x i8], ptr @.str.38, i64 0, i64 %54
  %56 = call ptr @strcpy(ptr noundef %39, ptr noundef %55) #13
  %57 = load ptr, ptr %8, align 8
  %58 = call i32 @stat(ptr noundef %57, ptr noundef %4) #13
  %59 = icmp eq i32 %58, 0
  br i1 %59, label %64, label %60

60:                                               ; preds = %50
  %61 = call ptr @__errno_location() #16
  %62 = load i32, ptr %61, align 4
  %63 = icmp eq i32 %62, 75
  br label %64

64:                                               ; preds = %60, %50
  %65 = phi i1 [ true, %50 ], [ %63, %60 ]
  %66 = zext i1 %65 to i8
  store i8 %66, ptr %9, align 1
  %67 = load ptr, ptr %8, align 8
  call void @free(ptr noundef %67) #13
  %68 = load i8, ptr %9, align 1, !range !6, !noundef !7
  %69 = trunc i8 %68 to i1
  store i1 %69, ptr %2, align 1
  store i32 1, ptr %6, align 4
  call void @llvm.lifetime.end.p0(i64 1, ptr %9) #13
  call void @llvm.lifetime.end.p0(i64 8, ptr %8) #13
  call void @llvm.lifetime.end.p0(i64 8, ptr %7) #13
  br label %71

70:                                               ; preds = %24
  store i1 false, ptr %2, align 1
  store i32 1, ptr %6, align 4
  br label %71

71:                                               ; preds = %70, %64, %14
  call void @llvm.lifetime.end.p0(i64 4, ptr %5) #13
  call void @llvm.lifetime.end.p0(i64 144, ptr %4) #13
  %72 = load i1, ptr %2, align 1
  ret i1 %72
}