; Function Attrs: nounwind uwtable
define internal fastcc zeroext i1 @itsdir(ptr noundef readonly captures(none) %0) unnamed_addr #0 {
  %2 = alloca %struct.stat, align 8
  call void @llvm.lifetime.start.p0(i64 144, ptr nonnull %2) #26
  %3 = call i32 @stat(ptr noundef %0, ptr noundef nonnull %2) #26
  %4 = icmp eq i32 %3, 0
  br i1 %4, label %5, label %10

5:                                                ; preds = %1
  %6 = getelementptr inbounds nuw i8, ptr %2, i64 24
  %7 = load i32, ptr %6, align 8
  %8 = and i32 %7, 61440
  %9 = icmp eq i32 %8, 16384
  br label %39

10:                                               ; preds = %1
  %11 = tail call ptr @__errno_location() #28
  %12 = load i32, ptr %11, align 4
  %13 = icmp eq i32 %12, 75
  br i1 %13, label %14, label %39

14:                                               ; preds = %10
  %15 = tail call i64 @strlen(ptr noundef nonnull dereferenceable(1) %0) #27
  %16 = add i64 %15, 3
  %17 = tail call noalias ptr @malloc(i64 noundef %16) #31
  %18 = icmp eq ptr %17, null
  br i1 %18, label %19, label %emalloc.exit

19:                                               ; preds = %14
  %20 = tail call ptr @pg_strerror(i32 noundef 75) #26
  tail call fastcc void @memory_exhausted(ptr noundef %20) #30
  unreachable

emalloc.exit:                                     ; preds = %14
  tail call void @llvm.memcpy.p0.p0.i64(ptr nonnull align 1 %17, ptr nonnull align 1 %0, i64 %15, i1 false)
  %21 = getelementptr inbounds nuw i8, ptr %17, i64 %15
  %.not = icmp eq i64 %15, 0
  br i1 %.not, label %28, label %22

22:                                               ; preds = %emalloc.exit
  %23 = getelementptr i8, ptr %0, i64 %15
  %24 = getelementptr i8, ptr %23, i64 -1
  %25 = load i8, ptr %24, align 1
  %26 = icmp eq i8 %25, 47
  %27 = zext i1 %26 to i64
  br label %28

28:                                               ; preds = %22, %emalloc.exit
  %29 = phi i64 [ 1, %emalloc.exit ], [ %27, %22 ]
  %30 = getelementptr inbounds nuw [3 x i8], ptr @.str.38, i64 0, i64 %29
  %31 = tail call ptr @strcpy(ptr noundef nonnull dereferenceable(1) %21, ptr noundef nonnull dereferenceable(1) %30) #26
  %32 = call i32 @stat(ptr noundef nonnull %17, ptr noundef nonnull %2) #26
  %33 = icmp eq i32 %32, 0
  br i1 %33, label %37, label %34

34:                                               ; preds = %28
  %35 = load i32, ptr %11, align 4
  %36 = icmp eq i32 %35, 75
  br label %37

37:                                               ; preds = %34, %28
  %38 = phi i1 [ true, %28 ], [ %36, %34 ]
  tail call void @free(ptr noundef nonnull %17) #26
  br label %39

39:                                               ; preds = %10, %37, %5
  %.0 = phi i1 [ %9, %5 ], [ %38, %37 ], [ false, %10 ]
  call void @llvm.lifetime.end.p0(i64 144, ptr nonnull %2) #26
  ret i1 %.0
}